Certificate:
    Data:
        Version: 3 (0x2)
        Serial Number: 2 (0x2)
    Signature Algorithm: sha256WithRSAEncryption
        Issuer: C=ES, ST=B, L=Sallent, O=OpenVPN, OU=changeme, CN=Sallent-01/name=changeme/emailAddress=mail@host.domain
        Validity
            Not Before: Feb 25 09:28:09 2022 GMT
            Not After : Feb 23 09:28:09 2032 GMT
        Subject: C=ES, ST=B, L=Sallent, O=OpenVPN, OU=changeme, CN=ajsallent-enecity-cam/name=changeme/emailAddress=mail@host.domain
        Subject Public Key Info:
            Public Key Algorithm: rsaEncryption
                Public-Key: (4096 bit)
                Modulus:
                    00:c2:bc:b8:cc:8e:fd:46:a6:f8:9d:6f:a3:1c:8c:
                    b4:e6:e3:ff:94:90:75:17:28:41:44:8a:d7:b5:30:
                    08:a3:b4:ad:09:40:ac:08:65:8b:c3:71:c8:c8:24:
                    fd:9b:cf:e0:e8:61:22:bb:5a:e1:ba:cb:72:74:4b:
                    95:dd:be:5a:e5:76:0c:cc:c0:2f:a1:de:72:08:63:
                    ea:c2:91:5b:aa:ab:7b:58:c0:10:d9:3e:b9:f4:89:
                    4e:1b:8a:a7:49:28:cf:cd:4d:98:7c:5c:a6:31:e4:
                    6b:b5:e1:d0:eb:0e:44:ec:bb:b1:23:dd:e6:04:98:
                    be:0e:cc:ff:1f:9c:ea:33:f1:40:0d:f9:b7:8c:85:
                    04:2a:de:73:e0:3d:56:15:03:ec:0c:a4:c6:cd:ce:
                    cc:a5:19:0b:96:bd:e2:95:67:10:32:3a:87:d3:86:
                    23:d6:ad:b7:56:84:68:c2:39:48:99:a0:e2:5b:dd:
                    1b:b1:a0:db:71:90:14:68:40:ff:45:24:3e:92:e2:
                    93:e3:a3:a2:00:77:0f:ab:d0:e1:d4:5d:c6:f6:73:
                    1e:ef:6b:e6:cc:5f:35:87:93:10:1c:6c:95:fd:c6:
                    b2:e6:8d:90:4c:09:2d:3f:5d:88:dc:c3:38:30:45:
                    b4:52:99:83:74:3f:55:36:6f:aa:04:40:ad:84:12:
                    03:8f:bb:5c:77:2b:e3:39:b6:e0:e2:61:a0:7c:d0:
                    8d:fc:1d:78:b9:ef:52:6d:d1:7c:b5:df:40:39:d4:
                    94:db:9b:45:2a:e7:be:b5:38:6d:3d:eb:89:12:8e:
                    9c:e2:94:0d:62:86:61:c7:53:b2:9c:91:32:b1:fc:
                    4f:4b:ca:a1:50:32:25:7f:5c:a0:da:6d:e0:79:0c:
                    de:de:7b:17:db:ed:d3:a6:9a:de:ac:67:f2:72:e2:
                    89:1e:08:f2:70:08:b7:3b:e1:3c:7d:0f:38:b4:8d:
                    1a:f8:b7:af:cd:e1:78:7c:d0:e4:bc:58:45:04:3a:
                    d6:ce:24:7a:9f:65:06:76:16:e2:10:1c:c1:52:36:
                    1f:eb:84:8f:7d:82:e5:68:94:af:03:4d:26:c9:b9:
                    4e:a2:24:e7:2d:9c:e1:4a:2c:0e:46:82:6b:b7:ab:
                    ed:81:08:3a:c6:14:d7:c5:64:62:61:00:d4:4c:77:
                    65:04:a1:04:c0:05:b4:05:94:33:49:e5:bd:e6:eb:
                    f9:2f:06:2c:71:48:b7:07:17:49:56:49:c9:26:a7:
                    59:e3:dd:89:21:43:f8:a7:2f:48:5a:69:e1:a6:05:
                    32:03:83:91:7d:17:62:ad:a6:5a:c9:3e:45:d6:6b:
                    34:93:bd:22:b6:77:47:ca:a0:16:dd:b2:47:f0:66:
                    d1:d9:b3
                Exponent: 65537 (0x10001)
        X509v3 extensions:
            X509v3 Basic Constraints: 
                CA:FALSE
            Netscape Comment: 
                Easy-RSA Generated Certificate
            X509v3 Subject Key Identifier: 
                6D:08:96:2F:F3:B1:5F:41:6D:34:7A:EB:3C:8C:E1:81:BB:75:51:33
            X509v3 Authority Key Identifier: 
                keyid:27:85:CA:F0:FC:F0:75:85:C3:DC:97:B0:AE:EB:FD:42:42:D2:F9:B6
                DirName:/C=ES/ST=B/L=Sallent/O=OpenVPN/OU=changeme/CN=Sallent-01/name=changeme/emailAddress=mail@host.domain
                serial:FE:D4:A2:6C:68:51:D4:AD

            X509v3 Extended Key Usage: 
                TLS Web Client Authentication
            X509v3 Key Usage: 
                Digital Signature
    Signature Algorithm: sha256WithRSAEncryption
         40:f7:bb:c6:64:62:16:c4:7b:9f:be:5d:26:95:b0:7b:62:e2:
         98:1e:8d:1c:a9:4b:a2:1f:c4:7b:4d:74:26:d8:16:d8:4c:9e:
         27:c5:fb:c6:32:39:f9:2a:02:ff:5d:e5:94:47:3a:73:80:aa:
         3e:2e:d5:79:e9:f3:51:30:57:89:47:9d:44:c6:f3:bc:44:8b:
         fc:22:28:4a:2a:f5:2c:71:01:9f:ce:db:1a:f9:69:3a:f2:68:
         d6:a8:99:c6:32:e2:d5:eb:14:f3:7a:c3:00:dd:ef:52:c7:b6:
         6c:06:98:9e:a7:1c:4b:11:45:45:5f:4a:b6:47:b2:78:16:33:
         fa:0c:2d:67:7b:3a:16:3d:9d:a3:9a:67:87:ef:96:e3:8d:5b:
         f2:9b:36:92:cd:bd:41:3a:46:03:e3:00:58:e5:0e:45:3c:6c:
         ce:28:4e:8b:ad:30:db:22:63:fb:1e:14:d2:d3:43:db:7e:dc:
         36:58:55:55:b3:6e:2b:b6:48:96:43:ed:de:39:97:06:fe:72:
         0e:6c:18:08:08:c4:32:64:e4:09:d7:c7:b0:62:b4:93:79:f3:
         30:e4:15:54:b3:47:19:ef:ea:b5:94:78:af:53:fe:a5:73:d5:
         8d:8c:b6:5c:9f:95:4d:4c:f0:ad:c6:2c:85:71:3c:cc:b6:96:
         62:98:b0:25:1a:34:93:e0:5e:13:f5:c8:59:43:ba:b1:3c:c2:
         9d:4f:0f:ec:89:f8:22:17:3f:d4:8f:1b:ff:2c:ae:a6:a5:e8:
         54:9d:da:2c:46:f6:74:d7:f2:9b:06:94:fd:4c:80:78:dd:8e:
         69:d8:15:82:75:ee:4a:9b:5e:23:5b:17:99:94:1d:44:cd:6d:
         26:ea:1a:9a:cf:58:db:db:d6:54:4c:ed:49:66:a4:d1:84:cf:
         e9:57:bd:40:26:b2:b1:02:f7:28:da:5f:4f:e3:8e:4d:77:e9:
         b5:b7:ba:cd:4e:76:39:b3:04:fa:b3:1e:b1:9e:af:60:7f:66:
         1d:dc:93:72:dc:04:b3:1b:2b:61:59:2c:41:66:7f:0c:9e:ec:
         d2:c4:42:84:f6:aa:f5:19:f7:f2:a1:26:a2:e6:41:88:d6:23:
         02:b2:d9:6b:3e:c0:7f:97:1a:09:e0:ac:01:0e:bc:9f:cb:0a:
         67:27:03:a4:2e:54:de:a2:fe:31:54:05:ae:f0:26:24:7a:6c:
         4b:e5:1e:dd:4f:3e:f3:b0:1e:30:4e:fa:b1:19:14:8d:64:86:
         79:05:23:f0:17:96:b6:73:0a:62:36:84:ec:ac:3a:00:52:23:
         b5:3b:da:09:d8:d0:78:2c:6b:d8:15:e7:b0:d4:00:79:c3:13:
         a0:9e:2d:e2:70:e0:17:d5
-----BEGIN CERTIFICATE-----
MIIHDDCCBPSgAwIBAgIBAjANBgkqhkiG9w0BAQsFADCBmTELMAkGA1UEBhMCRVMx
CjAIBgNVBAgTAUIxEDAOBgNVBAcTB1NhbGxlbnQxEDAOBgNVBAoTB09wZW5WUE4x
ETAPBgNVBAsTCGNoYW5nZW1lMRMwEQYDVQQDEwpTYWxsZW50LTAxMREwDwYDVQQp
EwhjaGFuZ2VtZTEfMB0GCSqGSIb3DQEJARYQbWFpbEBob3N0LmRvbWFpbjAeFw0y
MjAyMjUwOTI4MDlaFw0zMjAyMjMwOTI4MDlaMIGkMQswCQYDVQQGEwJFUzEKMAgG
A1UECBMBQjEQMA4GA1UEBxMHU2FsbGVudDEQMA4GA1UEChMHT3BlblZQTjERMA8G
A1UECxMIY2hhbmdlbWUxHjAcBgNVBAMTFWFqc2FsbGVudC1lbmVjaXR5LWNhbTER
MA8GA1UEKRMIY2hhbmdlbWUxHzAdBgkqhkiG9w0BCQEWEG1haWxAaG9zdC5kb21h
aW4wggIiMA0GCSqGSIb3DQEBAQUAA4ICDwAwggIKAoICAQDCvLjMjv1Gpvidb6Mc
jLTm4/+UkHUXKEFEite1MAijtK0JQKwIZYvDccjIJP2bz+DoYSK7WuG6y3J0S5Xd
vlrldgzMwC+h3nIIY+rCkVuqq3tYwBDZPrn0iU4biqdJKM/NTZh8XKYx5Gu14dDr
DkTsu7Ej3eYEmL4OzP8fnOoz8UAN+beMhQQq3nPgPVYVA+wMpMbNzsylGQuWveKV
ZxAyOofThiPWrbdWhGjCOUiZoOJb3RuxoNtxkBRoQP9FJD6S4pPjo6IAdw+r0OHU
Xcb2cx7va+bMXzWHkxAcbJX9xrLmjZBMCS0/XYjcwzgwRbRSmYN0P1U2b6oEQK2E
EgOPu1x3K+M5tuDiYaB80I38HXi571Jt0Xy130A51JTbm0Uq5761OG0964kSjpzi
lA1ihmHHU7KckTKx/E9LyqFQMiV/XKDabeB5DN7eexfb7dOmmt6sZ/Jy4okeCPJw
CLc74Tx9Dzi0jRr4t6/N4Xh80OS8WEUEOtbOJHqfZQZ2FuIQHMFSNh/rhI99guVo
lK8DTSbJuU6iJOctnOFKLA5Ggmu3q+2BCDrGFNfFZGJhANRMd2UEoQTABbQFlDNJ
5b3m6/kvBixxSLcHF0lWSckmp1nj3YkhQ/inL0haaeGmBTIDg5F9F2KtplrJPkXW
azSTvSK2d0fKoBbdskfwZtHZswIDAQABo4IBUDCCAUwwCQYDVR0TBAIwADAtBglg
hkgBhvhCAQ0EIBYeRWFzeS1SU0EgR2VuZXJhdGVkIENlcnRpZmljYXRlMB0GA1Ud
DgQWBBRtCJYv87FfQW00eus8jOGBu3VRMzCBzgYDVR0jBIHGMIHDgBQnhcrw/PB1
hcPcl7Cu6/1CQtL5tqGBn6SBnDCBmTELMAkGA1UEBhMCRVMxCjAIBgNVBAgTAUIx
EDAOBgNVBAcTB1NhbGxlbnQxEDAOBgNVBAoTB09wZW5WUE4xETAPBgNVBAsTCGNo
YW5nZW1lMRMwEQYDVQQDEwpTYWxsZW50LTAxMREwDwYDVQQpEwhjaGFuZ2VtZTEf
MB0GCSqGSIb3DQEJARYQbWFpbEBob3N0LmRvbWFpboIJAP7UomxoUdStMBMGA1Ud
JQQMMAoGCCsGAQUFBwMCMAsGA1UdDwQEAwIHgDANBgkqhkiG9w0BAQsFAAOCAgEA
QPe7xmRiFsR7n75dJpWwe2LimB6NHKlLoh/Ee010JtgW2EyeJ8X7xjI5+SoC/13l
lEc6c4CqPi7VeenzUTBXiUedRMbzvESL/CIoSir1LHEBn87bGvlpOvJo1qiZxjLi
1esU83rDAN3vUse2bAaYnqccSxFFRV9KtkeyeBYz+gwtZ3s6Fj2do5pnh++W441b
8ps2ks29QTpGA+MAWOUORTxszihOi60w2yJj+x4U0tND237cNlhVVbNuK7ZIlkPt
3jmXBv5yDmwYCAjEMmTkCdfHsGK0k3nzMOQVVLNHGe/qtZR4r1P+pXPVjYy2XJ+V
TUzwrcYshXE8zLaWYpiwJRo0k+BeE/XIWUO6sTzCnU8P7In4Ihc/1I8b/yyupqXo
VJ3aLEb2dNfymwaU/UyAeN2OadgVgnXuSpteI1sXmZQdRM1tJuoams9Y29vWVEzt
SWak0YTP6Ve9QCaysQL3KNpfT+OOTXfptbe6zU52ObME+rMesZ6vYH9mHdyTctwE
sxsrYVksQWZ/DJ7s0sRChPaq9Rn38qEmouZBiNYjArLZaz7Af5caCeCsAQ68n8sK
ZycDpC5U3qL+MVQFrvAmJHpsS+Ue3U8+87AeME76sRkUjWSGeQUj8BeWtnMKYjaE
7Kw6AFIjtTvaCdjQeCxr2BXnsNQAecMToJ4t4nDgF9U=
-----END CERTIFICATE-----
